; Function Attrs: mustprogress nounwind uwtable
define void @_ZN5boost13thread_detail18commit_once_regionERNS_9once_flagE(ptr noundef nonnull align 4 dereferenceable(4) %0) local_unnamed_addr #0 personality ptr @__gxx_personality_v0 {
  br label %2

2:                                                ; preds = %2, %1
  %3 = tail call i32 @pthread_mutex_lock(ptr noundef nonnull @_ZN5boost13thread_detailL10once_mutexE) #5
  %4 = icmp eq i32 %3, 4
  br i1 %4, label %2, label %5, !llvm.loop !3

5:                                                ; preds = %2
  store atomic volatile i32 2, ptr %0 release, align 4
  br label %6

6:                                                ; preds = %6, %5
  %7 = tail call i32 @pthread_mutex_unlock(ptr noundef nonnull @_ZN5boost13thread_detailL10once_mutexE) #5
  %8 = icmp eq i32 %7, 4
  br i1 %8, label %6, label %_ZN5boost7pthread25pthread_mutex_scoped_lockD2Ev.exit, !llvm.loop !7

_ZN5boost7pthread25pthread_mutex_scoped_lockD2Ev.exit: ; preds = %6
  %9 = tail call noundef i32 @pthread_cond_broadcast(ptr noundef nonnull @_ZN5boost13thread_detailL7once_cvE) #5
  ret void
}